target datalayout = "e-m:e-p270:32:32-p271:32:32-p272:64:64-i64:64-i128:128-f80:128-n8:16:32:64-S128"
target triple = "x86_64-pc-linux-gnu"

%"class.Ipopt::SolveStatistics" = type { %"class.Ipopt::ReferencedObject.base", i32, double, double, double, i32, i32, i32, i32, i32, double, double, double, double, double, double, double, double, double, double, double, double }
%"class.Ipopt::ReferencedObject.base" = type <{ ptr, i32 }>

; Function Attrs: mustprogress nounwind uwtable
define void @_ZNK5Ipopt15SolveStatistics21ScaledInfeasibilitiesERdS1_S1_S1_S1_(ptr noundef nonnull align 8 dereferenceable(160) %0, ptr noundef nonnull align 8 dereferenceable(8) %1, ptr noundef nonnull align 8 dereferenceable(8) %2, ptr noundef nonnull align 8 dereferenceable(8) %3, ptr noundef nonnull align 8 dereferenceable(8) %4, ptr noundef nonnull align 8 dereferenceable(8) %5) unnamed_addr #5 align 2 {
  %7 = alloca ptr, align 8
  %8 = alloca ptr, align 8
  %9 = alloca ptr, align 8
  %10 = alloca ptr, align 8
  %11 = alloca ptr, align 8
  %12 = alloca ptr, align 8
  store ptr %0, ptr %7, align 8, !tbaa !3
  store ptr %1, ptr %8, align 8, !tbaa !81
  store ptr %2, ptr %9, align 8, !tbaa !81
  store ptr %3, ptr %10, align 8, !tbaa !81
  store ptr %4, ptr %11, align 8, !tbaa !81
  store ptr %5, ptr %12, align 8, !tbaa !81
  %13 = load ptr, ptr %7, align 8
  %14 = getelementptr inbounds nuw %"class.Ipopt::SolveStatistics", ptr %13, i32 0, i32 12
  %15 = load double, ptr %14, align 8, !tbaa !31
  %16 = load ptr, ptr %8, align 8, !tbaa !81
  store double %15, ptr %16, align 8, !tbaa !83
  %17 = getelementptr inbounds nuw %"class.Ipopt::SolveStatistics", ptr %13, i32 0, i32 14
  %18 = load double, ptr %17, align 8, !tbaa !33
  %19 = load ptr, ptr %9, align 8, !tbaa !81
  store double %18, ptr %19, align 8, !tbaa !83
  %20 = getelementptr inbounds nuw %"class.Ipopt::SolveStatistics", ptr %13, i32 0, i32 16
  %21 = load double, ptr %20, align 8, !tbaa !35
  %22 = load ptr, ptr %10, align 8, !tbaa !81
  store double %21, ptr %22, align 8, !tbaa !83
  %23 = getelementptr inbounds nuw %"class.Ipopt::SolveStatistics", ptr %13, i32 0, i32 18
  %24 = load double, ptr %23, align 8, !tbaa !37
  %25 = load ptr, ptr %11, align 8, !tbaa !81
  store double %24, ptr %25, align 8, !tbaa !83
  %26 = getelementptr inbounds nuw %"class.Ipopt::SolveStatistics", ptr %13, i32 0, i32 20
  %27 = load double, ptr %26, align 8, !tbaa !39
  %28 = load ptr, ptr %12, align 8, !tbaa !81
  store double %27, ptr %28, align 8, !tbaa !83
  ret void
}