; Function Attrs: mustprogress nofree norecurse nosync nounwind willreturn memory(argmem: readwrite) uwtable
define void @_ZNK5Ipopt15SolveStatistics21ScaledInfeasibilitiesERdS1_S1_S1_S1_(ptr noundef nonnull readonly align 8 captures(none) dereferenceable(160) %0, ptr noundef nonnull writeonly align 8 captures(none) dereferenceable(8) initializes((0, 8)) %1, ptr noundef nonnull writeonly align 8 captures(none) dereferenceable(8) initializes((0, 8)) %2, ptr noundef nonnull writeonly align 8 captures(none) dereferenceable(8) initializes((0, 8)) %3, ptr noundef nonnull writeonly align 8 captures(none) dereferenceable(8) initializes((0, 8)) %4, ptr noundef nonnull writeonly align 8 captures(none) dereferenceable(8) initializes((0, 8)) %5) unnamed_addr #5 align 2 {
  %7 = getelementptr inbounds nuw i8, ptr %0, i64 80
  %8 = load double, ptr %7, align 8, !tbaa !53
  store double %8, ptr %1, align 8, !tbaa !64
  %9 = getelementptr inbounds nuw i8, ptr %0, i64 96
  %10 = load double, ptr %9, align 8, !tbaa !55
  store double %10, ptr %2, align 8, !tbaa !64
  %11 = getelementptr inbounds nuw i8, ptr %0, i64 112
  %12 = load double, ptr %11, align 8, !tbaa !57
  store double %12, ptr %3, align 8, !tbaa !64
  %13 = getelementptr inbounds nuw i8, ptr %0, i64 128
  %14 = load double, ptr %13, align 8, !tbaa !59
  store double %14, ptr %4, align 8, !tbaa !64
  %15 = getelementptr inbounds nuw i8, ptr %0, i64 144
  %16 = load double, ptr %15, align 8, !tbaa !61
  store double %16, ptr %5, align 8, !tbaa !64
  ret void
}